; Function Attrs: nounwind uwtable
define internal fastcc zeroext range(i8 0, 2) i8 @_init_l_Lake_initPkg___lambda__2___closed__16() unnamed_addr #1 {
  %1 = load ptr, ptr @l_Lake_Git_upstreamBranch, align 8, !tbaa !4
  %2 = load ptr, ptr @l_Lake_initPkg___lambda__2___closed__15, align 8, !tbaa !4
  %3 = icmp eq ptr %1, %2
  br i1 %3, label %lean_string_dec_eq.exit, label %4

4:                                                ; preds = %0
  %5 = getelementptr i8, ptr %1, i64 8
  %.val.i.i = load i64, ptr %5, align 8, !tbaa !12
  %6 = getelementptr i8, ptr %2, i64 8
  %.val7.i.i = load i64, ptr %6, align 8, !tbaa !12
  %7 = icmp eq i64 %.val.i.i, %.val7.i.i
  br i1 %7, label %8, label %lean_string_dec_eq.exit

8:                                                ; preds = %4
  %9 = tail call zeroext i1 @lean_string_eq_cold(ptr noundef nonnull %1, ptr noundef nonnull %2) #6
  %10 = zext i1 %9 to i8
  br label %lean_string_dec_eq.exit

lean_string_dec_eq.exit:                          ; preds = %0, %4, %8
  %11 = phi i8 [ 1, %0 ], [ 0, %4 ], [ %10, %8 ]
  ret i8 %11
}